target datalayout = "e-m:e-p270:32:32-p271:32:32-p272:64:64-i64:64-i128:128-f80:128-n8:16:32:64-S128"
target triple = "x86_64-pc-linux-gnu"

%struct.malloc_state = type { i32, i32, i64, i64, ptr, ptr, i64, i64, [66 x ptr], [32 x ptr], %struct.malloc_segment, ptr }
%struct.malloc_segment = type { ptr, i64, ptr }

; Function Attrs: nounwind uwtable
define internal i32 @CALL_MUNMAP(ptr noundef %0, i64 noundef %1) #0 {
  %3 = alloca ptr, align 8
  %4 = alloca i64, align 8
  %5 = alloca i32, align 4
  %6 = alloca i32, align 4
  store ptr %0, ptr %3, align 8, !tbaa !27
  store i64 %1, ptr %4, align 8, !tbaa !9
  call void @llvm.lifetime.start.p0(i64 4, ptr %5) #10
  %7 = call ptr @__errno_location() #11
  %8 = load i32, ptr %7, align 4, !tbaa !26
  store i32 %8, ptr %5, align 4, !tbaa !26
  call void @llvm.lifetime.start.p0(i64 4, ptr %6) #10
  %9 = load ptr, ptr %3, align 8, !tbaa !27
  %10 = load i64, ptr %4, align 8, !tbaa !9
  %11 = call i32 @munmap(ptr noundef %9, i64 noundef %10) #10
  store i32 %11, ptr %6, align 4, !tbaa !26
  %12 = load i32, ptr %5, align 4, !tbaa !26
  %13 = call ptr @__errno_location() #11
  store i32 %12, ptr %13, align 4, !tbaa !26
  %14 = load i32, ptr %6, align 4, !tbaa !26
  call void @llvm.lifetime.end.p0(i64 4, ptr %6) #10
  call void @llvm.lifetime.end.p0(i64 4, ptr %5) #10
  ret i32 %14
}

; Function Attrs: nounwind uwtable
define hidden void @lj_alloc_destroy(ptr noundef %0) #0 {
  %2 = alloca ptr, align 8
  %3 = alloca ptr, align 8
  %4 = alloca ptr, align 8
  %5 = alloca ptr, align 8
  %6 = alloca i64, align 8
  store ptr %0, ptr %2, align 8, !tbaa !27
  call void @llvm.lifetime.start.p0(i64 8, ptr %3) #10
  %7 = load ptr, ptr %2, align 8, !tbaa !27
  store ptr %7, ptr %3, align 8, !tbaa !15
  call void @llvm.lifetime.start.p0(i64 8, ptr %4) #10
  %8 = load ptr, ptr %3, align 8, !tbaa !15
  %9 = getelementptr inbounds nuw %struct.malloc_state, ptr %8, i32 0, i32 10
  store ptr %9, ptr %4, align 8, !tbaa !38
  br label %10

10:                                               ; preds = %13, %1
  %11 = load ptr, ptr %4, align 8, !tbaa !38
  %12 = icmp ne ptr %11, null
  br i1 %12, label %13, label %26

13:                                               ; preds = %10
  call void @llvm.lifetime.start.p0(i64 8, ptr %5) #10
  %14 = load ptr, ptr %4, align 8, !tbaa !38
  %15 = getelementptr inbounds nuw %struct.malloc_segment, ptr %14, i32 0, i32 0
  %16 = load ptr, ptr %15, align 8, !tbaa !39
  store ptr %16, ptr %5, align 8, !tbaa !11
  call void @llvm.lifetime.start.p0(i64 8, ptr %6) #10
  %17 = load ptr, ptr %4, align 8, !tbaa !38
  %18 = getelementptr inbounds nuw %struct.malloc_segment, ptr %17, i32 0, i32 1
  %19 = load i64, ptr %18, align 8, !tbaa !40
  store i64 %19, ptr %6, align 8, !tbaa !9
  %20 = load ptr, ptr %4, align 8, !tbaa !38
  %21 = getelementptr inbounds nuw %struct.malloc_segment, ptr %20, i32 0, i32 2
  %22 = load ptr, ptr %21, align 8, !tbaa !41
  store ptr %22, ptr %4, align 8, !tbaa !38
  %23 = load ptr, ptr %5, align 8, !tbaa !11
  %24 = load i64, ptr %6, align 8, !tbaa !9
  %25 = call i32 @CALL_MUNMAP(ptr noundef %23, i64 noundef %24)
  call void @llvm.lifetime.end.p0(i64 8, ptr %6) #10
  call void @llvm.lifetime.end.p0(i64 8, ptr %5) #10
  br label %10, !llvm.loop !42

26:                                               ; preds = %10
  call void @llvm.lifetime.end.p0(i64 8, ptr %4) #10
  call void @llvm.lifetime.end.p0(i64 8, ptr %3) #10
  ret void
}