; Function Attrs: nounwind uwtable
define hidden void @lj_alloc_destroy(ptr noundef readonly captures(none) %0) local_unnamed_addr #0 {
  %2 = getelementptr inbounds nuw i8, ptr %0, i64 840
  %3 = tail call ptr @__errno_location() #10
  %.pre = load i32, ptr %3, align 4, !tbaa !27
  br label %4

4:                                                ; preds = %1, %4
  %.07 = phi ptr [ %2, %1 ], [ %9, %4 ]
  %5 = load ptr, ptr %.07, align 8, !tbaa !32
  %6 = getelementptr inbounds nuw i8, ptr %.07, i64 8
  %7 = load i64, ptr %6, align 8, !tbaa !33
  %8 = getelementptr inbounds nuw i8, ptr %.07, i64 16
  %9 = load ptr, ptr %8, align 8, !tbaa !34
  %10 = tail call i32 @munmap(ptr noundef %5, i64 noundef %7) #11
  store i32 %.pre, ptr %3, align 4, !tbaa !27
  %.not = icmp eq ptr %9, null
  br i1 %.not, label %11, label %4, !llvm.loop !35

11:                                               ; preds = %4
  ret void
}